target datalayout = "e-m:e-p270:32:32-p271:32:32-p272:64:64-i64:64-i128:128-f80:128-n8:16:32:64-S128"
target triple = "x86_64-pc-linux-gnu"

%struct.token_s = type { ptr, i64 }

@current_time = external global i32, align 4
@.str.15 = private unnamed_addr constant [6 x i8] c"ERROR\00", align 1
@.str.98 = private unnamed_addr constant [3 x i8] c"OK\00", align 1
@.str.123 = private unnamed_addr constant [2 x i8] c"p\00", align 1
@is_paused = external global i8, align 1
@.str.124 = private unnamed_addr constant [2 x i8] c"r\00", align 1
@delta = external global i64, align 8

; Function Attrs: nounwind uwtable
define internal void @process_debugtime_command(ptr noundef %0, ptr noundef %1, i64 noundef %2) #0 {
  %4 = alloca ptr, align 8
  %5 = alloca ptr, align 8
  %6 = alloca i64, align 8
  %7 = alloca i64, align 8
  %8 = alloca i32, align 4
  store ptr %0, ptr %4, align 8, !tbaa !4
  store ptr %1, ptr %5, align 8, !tbaa !77
  store i64 %2, ptr %6, align 8, !tbaa !44
  %9 = load ptr, ptr %5, align 8, !tbaa !77
  %10 = getelementptr inbounds %struct.token_s, ptr %9, i64 1
  %11 = getelementptr inbounds nuw %struct.token_s, ptr %10, i32 0, i32 0
  %12 = load ptr, ptr %11, align 8, !tbaa !70
  %13 = call i32 @strcmp(ptr noundef %12, ptr noundef @.str.123) #9
  %14 = icmp eq i32 %13, 0
  br i1 %14, label %15, label %20

15:                                               ; preds = %3
  %16 = load volatile i8, ptr @is_paused, align 1, !tbaa !31, !range !40, !noundef !41
  %17 = trunc i8 %16 to i1
  br i1 %17, label %19, label %18

18:                                               ; preds = %15
  store volatile i8 1, ptr @is_paused, align 1, !tbaa !31
  br label %19

19:                                               ; preds = %18, %15
  br label %53

20:                                               ; preds = %3
  %21 = load ptr, ptr %5, align 8, !tbaa !77
  %22 = getelementptr inbounds %struct.token_s, ptr %21, i64 1
  %23 = getelementptr inbounds nuw %struct.token_s, ptr %22, i32 0, i32 0
  %24 = load ptr, ptr %23, align 8, !tbaa !70
  %25 = call i32 @strcmp(ptr noundef %24, ptr noundef @.str.124) #9
  %26 = icmp eq i32 %25, 0
  br i1 %26, label %27, label %32

27:                                               ; preds = %20
  %28 = load volatile i8, ptr @is_paused, align 1, !tbaa !31, !range !40, !noundef !41
  %29 = trunc i8 %28 to i1
  br i1 %29, label %30, label %31

30:                                               ; preds = %27
  store volatile i8 0, ptr @is_paused, align 1, !tbaa !31
  br label %31

31:                                               ; preds = %30, %27
  br label %52

32:                                               ; preds = %20
  call void @llvm.lifetime.start.p0(i64 8, ptr %7) #8
  store i64 0, ptr %7, align 8, !tbaa !44
  %33 = load ptr, ptr %5, align 8, !tbaa !77
  %34 = getelementptr inbounds %struct.token_s, ptr %33, i64 1
  %35 = getelementptr inbounds nuw %struct.token_s, ptr %34, i32 0, i32 0
  %36 = load ptr, ptr %35, align 8, !tbaa !70
  %37 = call zeroext i1 @safe_strtoll(ptr noundef %36, ptr noundef %7)
  br i1 %37, label %40, label %38

38:                                               ; preds = %32
  %39 = load ptr, ptr %4, align 8, !tbaa !4
  call void @out_string(ptr noundef %39, ptr noundef @.str.15)
  store i32 1, ptr %8, align 4
  br label %49

40:                                               ; preds = %32
  %41 = load i64, ptr %7, align 8, !tbaa !44
  %42 = load volatile i64, ptr @delta, align 8, !tbaa !44
  %43 = add nsw i64 %42, %41
  store volatile i64 %43, ptr @delta, align 8, !tbaa !44
  %44 = load volatile i64, ptr @delta, align 8, !tbaa !44
  %45 = load volatile i32, ptr @current_time, align 4, !tbaa !30
  %46 = zext i32 %45 to i64
  %47 = add nsw i64 %46, %44
  %48 = trunc i64 %47 to i32
  store volatile i32 %48, ptr @current_time, align 4, !tbaa !30
  store i32 0, ptr %8, align 4
  br label %49

49:                                               ; preds = %40, %38
  call void @llvm.lifetime.end.p0(i64 8, ptr %7) #8
  %50 = load i32, ptr %8, align 4
  switch i32 %50, label %56 [
    i32 0, label %51
    i32 1, label %55
  ]

51:                                               ; preds = %49
  br label %52

52:                                               ; preds = %51, %31
  br label %53

53:                                               ; preds = %52, %19
  %54 = load ptr, ptr %4, align 8, !tbaa !4
  call void @out_string(ptr noundef %54, ptr noundef @.str.98)
  br label %55

55:                                               ; preds = %53, %49
  ret void

56:                                               ; preds = %49
  unreachable
}