; Function Attrs: nounwind uwtable
define internal fastcc void @process_debugtime_command(ptr noundef %0, ptr %.16.val) unnamed_addr #0 {
sub_0:
  %1 = alloca i64, align 8
  %2 = load i8, ptr %.16.val, align 1
  switch i8 %2, label %.tail2.thread [
    i8 112, label %.tail
    i8 114, label %.tail2
  ]

.tail:                                            ; preds = %sub_0
  %3 = getelementptr inbounds nuw i8, ptr %.16.val, i64 1
  %4 = load i8, ptr %3, align 1
  %5 = icmp eq i8 %4, 0
  br i1 %5, label %6, label %.tail2.thread

6:                                                ; preds = %.tail
  %7 = load volatile i8, ptr @is_paused, align 1, !tbaa !86, !range !37, !noundef !38
  %8 = trunc nuw i8 %7 to i1
  br i1 %8, label %26, label %9

9:                                                ; preds = %6
  store volatile i8 1, ptr @is_paused, align 1, !tbaa !86
  br label %26

.tail2:                                           ; preds = %sub_0
  %10 = getelementptr inbounds nuw i8, ptr %.16.val, i64 1
  %11 = load i8, ptr %10, align 1
  %12 = icmp eq i8 %11, 0
  br i1 %12, label %13, label %.tail2.thread

13:                                               ; preds = %.tail2
  %14 = load volatile i8, ptr @is_paused, align 1, !tbaa !86, !range !37, !noundef !38
  %15 = trunc nuw i8 %14 to i1
  br i1 %15, label %16, label %26

16:                                               ; preds = %13
  store volatile i8 0, ptr @is_paused, align 1, !tbaa !86
  br label %26

.tail2.thread:                                    ; preds = %sub_0, %.tail, %.tail2
  call void @llvm.lifetime.start.p0(i64 8, ptr nonnull %1) #13
  store i64 0, ptr %1, align 8, !tbaa !40
  %17 = call zeroext i1 @safe_strtoll(ptr noundef nonnull %.16.val, ptr noundef nonnull %1) #13
  br i1 %17, label %.thread, label %25

.thread:                                          ; preds = %.tail2.thread
  %18 = load i64, ptr %1, align 8, !tbaa !40
  %19 = load volatile i64, ptr @delta, align 8, !tbaa !40
  %20 = add nsw i64 %19, %18
  store volatile i64 %20, ptr @delta, align 8, !tbaa !40
  %21 = load volatile i64, ptr @delta, align 8, !tbaa !40
  %22 = load volatile i32, ptr @current_time, align 4, !tbaa !27
  %23 = trunc i64 %21 to i32
  %24 = add i32 %22, %23
  store volatile i32 %24, ptr @current_time, align 4, !tbaa !27
  call void @llvm.lifetime.end.p0(i64 8, ptr nonnull %1) #13
  br label %26

25:                                               ; preds = %.tail2.thread
  call void @out_string(ptr noundef %0, ptr noundef nonnull @.str.15) #13
  call void @llvm.lifetime.end.p0(i64 8, ptr nonnull %1) #13
  br label %27

26:                                               ; preds = %.thread, %16, %13, %6, %9
  call void @out_string(ptr noundef %0, ptr noundef nonnull @.str.98) #13
  br label %27

27:                                               ; preds = %25, %26
  ret void
}